ccopy_reg
_reconstructor
p0
(cadapt.engine
IntentDeterminationEngine
p1
c__builtin__
object
p2
Ntp3
Rp4
(dp5
S'tokenizer'
p6
g0
(cadapt.tools.text.tokenizer
EnglishTokenizer
p7
g2
Ntp8
Rp9
sS'regular_expressions_entities'
p10
(lp11
sS'trie'
p12
g0
(cadapt.tools.text.trie
Trie
p13
g2
Ntp14
Rp15
(dp16
S'max_edit_distance'
p17
I0
sS'match_threshold'
p18
F0.0
sS'root'
p19
g0
(cadapt.tools.text.trie
TrieNode
p20
g2
Ntp21
Rp22
(dp23
S'is_terminal'
p24
I00
sS'weight'
p25
F1.0
sS'data'
p26
c__builtin__
set
p27
((lp28
g19
atp29
Rp30
sS'children'
p31
(dp32
Va
p33
g0
(g20
g2
Ntp34
Rp35
(dp36
g24
I00
sg25
F1.0
sg26
g27
((lp37
tp38
Rp39
sg31
(dp40
Vd
p41
g0
(g20
g2
Ntp42
Rp43
(dp44
g24
I00
sg25
F1.0
sg26
g27
((lp45
tp46
Rp47
sg31
(dp48
Ve
p49
g0
(g20
g2
Ntp50
Rp51
(dp52
g24
I00
sg25
F1.0
sg26
g27
((lp53
tp54
Rp55
sg31
(dp56
Vl
p57
g0
(g20
g2
Ntp58
Rp59
(dp60
g24
I00
sg25
F1.0
sg26
g27
((lp61
tp62
Rp63
sg31
(dp64
g33
g0
(g20
g2
Ntp65
Rp66
(dp67
g24
I00
sg25
F1.0
sg26
g27
((lp68
tp69
Rp70
sg31
(dp71
Vi
p72
g0
(g20
g2
Ntp73
Rp74
(dp75
g24
I00
sg25
F1.0
sg26
g27
((lp76
tp77
Rp78
sg31
(dp79
g41
g0
(g20
g2
Ntp80
Rp81
(dp82
g24
I00
sg25
F1.0
sg26
g27
((lp83
tp84
Rp85
sg31
(dp86
g49
g0
(g20
g2
Ntp87
Rp88
(dp89
g24
I01
sg25
F1.0
sg26
g27
((lp90
(Vadelaide
p91
VLocation
p92
tp93
atp94
Rp95
sg31
(dp96
sS'key'
p97
g91
sbssg97
Nsbssg97
Nsbssg97
Nsbssg97
Nsbssg97
Nsbssg97
Nsbssg97
NsbsVc
p98
g0
(g20
g2
Ntp99
Rp100
(dp101
g24
I00
sg25
F1.0
sg26
g27
((lp102
tp103
Rp104
sg31
(dp105
g57
g0
(g20
g2
Ntp106
Rp107
(dp108
g24
I00
sg25
F1.0
sg26
g27
((lp109
tp110
Rp111
sg31
(dp112
g72
g0
(g20
g2
Ntp113
Rp114
(dp115
g24
I00
sg25
F1.0
sg26
g27
((lp116
tp117
Rp118
sg31
(dp119
Vm
p120
g0
(g20
g2
Ntp121
Rp122
(dp123
g24
I00
sg25
F1.0
sg26
g27
((lp124
tp125
Rp126
sg31
(dp127
g33
g0
(g20
g2
Ntp128
Rp129
(dp130
g24
I00
sg25
F1.0
sg26
g27
((lp131
tp132
Rp133
sg31
(dp134
Vt
p135
g0
(g20
g2
Ntp136
Rp137
(dp138
g24
I00
sg25
F1.0
sg26
g27
((lp139
tp140
Rp141
sg31
(dp142
g49
g0
(g20
g2
Ntp143
Rp144
(dp145
g24
I01
sg25
F1.0
sg26
g27
((lp146
(Vclimate
p147
VWeatherKeyword
p148
tp149
atp150
Rp151
sg31
(dp152
sg97
g147
sbssg97
Nsbssg97
Nsbssg97
Nsbssg97
Nsbssg97
Nsbssg97
Nsbsg57
g0
(g20
g2
Ntp153
Rp154
(dp155
g24
I00
sg25
F1.0
sg26
g27
((lp156
tp157
Rp158
sg31
(dp159
Vo
p160
g0
(g20
g2
Ntp161
Rp162
(dp163
g24
I00
sg25
F1.0
sg26
g27
((lp164
tp165
Rp166
sg31
(dp167
g98
g0
(g20
g2
Ntp168
Rp169
(dp170
g24
I00
sg25
F1.0
sg26
g27
((lp171
tp172
Rp173
sg31
(dp174
g33
g0
(g20
g2
Ntp175
Rp176
(dp177
g24
I00
sg25
F1.0
sg26
g27
((lp178
tp179
Rp180
sg31
(dp181
g135
g0
(g20
g2
Ntp182
Rp183
(dp184
g24
I00
sg25
F1.0
sg26
g27
((lp185
tp186
Rp187
sg31
(dp188
g72
g0
(g20
g2
Ntp189
Rp190
(dp191
g24
I00
sg25
F1.0
sg26
g27
((lp192
tp193
Rp194
sg31
(dp195
g160
g0
(g20
g2
Ntp196
Rp197
(dp198
g24
I00
sg25
F1.0
sg26
g27
((lp199
tp200
Rp201
sg31
(dp202
Vn
p203
g0
(g20
g2
Ntp204
Rp205
(dp206
g24
I01
sg25
F1.0
sg26
g27
((lp207
(g92
S'Concept'
p208
tp209
atp210
Rp211
sg31
(dp212
sg97
Vlocation
p213
sbssg97
Nsbssg97
Nsbssg97
Nsbssg97
Nsbssg97
Nsbsg203
g0
(g20
g2
Ntp214
Rp215
(dp216
g24
I00
sg25
F1.0
sg26
g27
((lp217
tp218
Rp219
sg31
(dp220
g41
g0
(g20
g2
Ntp221
Rp222
(dp223
g24
I00
sg25
F1.0
sg26
g27
((lp224
tp225
Rp226
sg31
(dp227
g160
g0
(g20
g2
Ntp228
Rp229
(dp230
g24
I00
sg25
F1.0
sg26
g27
((lp231
tp232
Rp233
sg31
(dp234
g203
g0
(g20
g2
Ntp235
Rp236
(dp237
g24
I01
sg25
F1.0
sg26
g27
((lp238
(Vlondon
p239
g92
tp240
atp241
Rp242
sg31
(dp243
sg97
g239
sbssg97
Nsbssg97
Nsbssg97
Nsbssg97
Nsbssg97
NsbsVw
p244
g0
(g20
g2
Ntp245
Rp246
(dp247
g24
I00
sg25
F1.0
sg26
g27
((lp248
tp249
Rp250
sg31
(dp251
g49
g0
(g20
g2
Ntp252
Rp253
(dp254
g24
I00
sg25
F1.0
sg26
g27
((lp255
tp256
Rp257
sg31
(dp258
g33
g0
(g20
g2
Ntp259
Rp260
(dp261
g24
I00
sg25
F1.0
sg26
g27
((lp262
tp263
Rp264
sg31
(dp265
g135
g0
(g20
g2
Ntp266
Rp267
(dp268
g24
I00
sg25
F1.0
sg26
g27
((lp269
tp270
Rp271
sg31
(dp272
Vh
p273
g0
(g20
g2
Ntp274
Rp275
(dp276
g24
I00
sg25
F1.0
sg26
g27
((lp277
tp278
Rp279
sg31
(dp280
g49
g0
(g20
g2
Ntp281
Rp282
(dp283
g24
I00
sg25
F1.0
sg26
g27
((lp284
tp285
Rp286
sg31
(dp287
Vr
p288
g0
(g20
g2
Ntp289
Rp290
(dp291
g24
I01
sg25
F1.0
sg26
g27
((lp292
(Vweather
p293
g148
tp294
atp295
Rp296
sg31
(dp297
Vk
p298
g0
(g20
g2
Ntp299
Rp300
(dp301
g24
I00
sg25
F1.0
sg26
g27
((lp302
tp303
Rp304
sg31
(dp305
g49
g0
(g20
g2
Ntp306
Rp307
(dp308
g24
I00
sg25
F1.0
sg26
g27
((lp309
tp310
Rp311
sg31
(dp312
Vy
p313
g0
(g20
g2
Ntp314
Rp315
(dp316
g24
I00
sg25
F1.0
sg26
g27
((lp317
tp318
Rp319
sg31
(dp320
g244
g0
(g20
g2
Ntp321
Rp322
(dp323
g24
I00
sg25
F1.0
sg26
g27
((lp324
tp325
Rp326
sg31
(dp327
g160
g0
(g20
g2
Ntp328
Rp329
(dp330
g24
I00
sg25
F1.0
sg26
g27
((lp331
tp332
Rp333
sg31
(dp334
g288
g0
(g20
g2
Ntp335
Rp336
(dp337
g24
I00
sg25
F1.0
sg26
g27
((lp338
tp339
Rp340
sg31
(dp341
g41
g0
(g20
g2
Ntp342
Rp343
(dp344
g24
I01
sg25
F1.0
sg26
g27
((lp345
(g148
g208
tp346
atp347
Rp348
sg31
(dp349
sg97
Vweatherkeyword
p350
sbssg97
Nsbssg97
Nsbssg97
Nsbssg97
Nsbssg97
Nsbssg97
Nsbssg97
g293
sbssg97
Nsbssg97
Nsbssg97
Nsbssg97
Nsbssg97
Nsbssg97
Nsbssg97
NsbsbsS'_events'
p351
ccollections
defaultdict
p352
(c__builtin__
list
p353
tp354
Rp355
sS'tagger'
p356
g0
(cadapt.entity_tagger
EntityTagger
p357
g2
Ntp358
Rp359
(dp360
g12
g15
sS'max_tokens'
p361
I20
sg6
g9
sS'regex_entities'
p362
g11
sbsS'intent_parsers'
p363
(lp364
g0
(cadapt.intent
Intent
p365
g2
Ntp366
Rp367
(dp368
S'at_least_one'
p369
(lp370
sS'optional'
p371
(lp372
(Vlocation
p373
g373
tp374
asS'requires'
p375
(lp376
(Vweatherkeyword
p377
g377
tp378
asS'name'
p379
Vsia.weather
p380
sbag0
(g365
g2
Ntp381
Rp382
(dp383
g369
(lp384
sg371
(lp385
sg375
(lp386
(Vmusickeywords
p387
g387
tp388
a(Vartists
p389
g389
tp390
asg379
Vsia.music
p391
sbasS'_regex_strings'
p392
g27
((lp393
tp394
Rp395
sb.